target datalayout = "e-m:e-p270:32:32-p271:32:32-p272:64:64-i64:64-i128:128-f80:128-n8:16:32:64-S128"
target triple = "x86_64-pc-linux-gnu"

%"class.cv::utils::trace::details::Region" = type <{ ptr, i32, [4 x i8] }>
%"struct.cv::hal::cpu_baseline::(anonymous namespace)::RGB2YCrCb_i" = type <{ i32, i32, [5 x i32], i8, [3 x i8] }>
%"class.cv::Range" = type { i32, i32 }
%"class.cv::impl::(anonymous namespace)::CvtColorLoop_Invoker" = type { %"class.cv::ParallelLoopBody", ptr, i64, ptr, i64, i32, ptr }
%"class.cv::ParallelLoopBody" = type { ptr }

; Function Attrs: mustprogress nounwind uwtable
define linkonce_odr hidden noundef zeroext i8 @_ZNSt14numeric_limitsIhE3maxEv() #2 comdat align 2 {
  ret i8 -1
}

; Function Attrs: mustprogress nounwind uwtable
define internal noundef zeroext i8 @_ZN2cv4impl12_GLOBAL__N_112ColorChannelIhE3maxEv() #2 align 2 {
  %1 = call noundef zeroext i8 @_ZNSt14numeric_limitsIhE3maxEv() #10
  ret i8 %1
}

; Function Attrs: mustprogress nounwind uwtable
define internal noundef zeroext i8 @_ZN2cvL13saturate_castIhEET_i(i32 noundef %0) #2 {
  %2 = alloca i32, align 4
  store i32 %0, ptr %2, align 4
  %3 = load i32, ptr %2, align 4
  %4 = icmp ule i32 %3, 255
  br i1 %4, label %5, label %7

5:                                                ; preds = %1
  %6 = load i32, ptr %2, align 4
  br label %11

7:                                                ; preds = %1
  %8 = load i32, ptr %2, align 4
  %9 = icmp sgt i32 %8, 0
  %10 = select i1 %9, i32 255, i32 0
  br label %11

11:                                               ; preds = %7, %5
  %12 = phi i32 [ %6, %5 ], [ %10, %7 ]
  %13 = trunc i32 %12 to i8
  ret i8 %13
}

; Function Attrs: mustprogress uwtable
define internal noundef zeroext i8 @_ZN2cv4impl12_GLOBAL__N_112ColorChannelIhE4halfEv() #0 align 2 {
  %1 = call noundef zeroext i8 @_ZN2cv4impl12_GLOBAL__N_112ColorChannelIhE3maxEv()
  %2 = zext i8 %1 to i32
  %3 = sdiv i32 %2, 2
  %4 = add nsw i32 %3, 1
  %5 = trunc i32 %4 to i8
  ret i8 %5
}

; Function Attrs: mustprogress nounwind uwtable
define linkonce_odr hidden void @_ZN2cv5utils5trace7details6RegionD2Ev(ptr noundef nonnull align 8 dereferenceable(12) %0) unnamed_addr #2 comdat align 2 personality ptr @__gxx_personality_v0 {
  %2 = alloca ptr, align 8
  store ptr %0, ptr %2, align 8
  %3 = load ptr, ptr %2, align 8
  %4 = getelementptr inbounds %"class.cv::utils::trace::details::Region", ptr %3, i32 0, i32 1
  %5 = load i32, ptr %4, align 8
  %6 = icmp ne i32 %5, 0
  br i1 %6, label %7, label %9

7:                                                ; preds = %1
  invoke void @_ZN2cv5utils5trace7details6Region7destroyEv(ptr noundef nonnull align 8 dereferenceable(12) %3)
          to label %8 unwind label %10

8:                                                ; preds = %7
  br label %9

9:                                                ; preds = %8, %1
  ret void

10:                                               ; preds = %7
  %11 = landingpad { ptr, i32 }
          catch ptr null
  %12 = extractvalue { ptr, i32 } %11, 0
  call void @__clang_call_terminate(ptr %12) #11
  unreachable
}

; Function Attrs: mustprogress uwtable
define internal void @_ZNK2cv3hal12cpu_baseline12_GLOBAL__N_111RGB2YCrCb_iIhEclEPKhPhi(ptr noundef nonnull align 4 dereferenceable(29) %0, ptr noundef %1, ptr noundef %2, i32 noundef %3) #0 align 2 {
  %5 = alloca ptr, align 8
  %6 = alloca ptr, align 8
  %7 = alloca ptr, align 8
  %8 = alloca i32, align 4
  %9 = alloca i32, align 4
  %10 = alloca i32, align 4
  %11 = alloca i32, align 4
  %12 = alloca i32, align 4
  %13 = alloca i32, align 4
  %14 = alloca i32, align 4
  %15 = alloca i32, align 4
  %16 = alloca i32, align 4
  %17 = alloca i32, align 4
  %18 = alloca i32, align 4
  %19 = alloca i32, align 4
  %20 = alloca i32, align 4
  %21 = alloca i32, align 4
  store ptr %0, ptr %5, align 8
  store ptr %1, ptr %6, align 8
  store ptr %2, ptr %7, align 8
  store i32 %3, ptr %8, align 4
  %22 = load ptr, ptr %5, align 8
  %23 = getelementptr inbounds %"struct.cv::hal::cpu_baseline::(anonymous namespace)::RGB2YCrCb_i", ptr %22, i32 0, i32 0
  %24 = load i32, ptr %23, align 4
  store i32 %24, ptr %9, align 4
  %25 = getelementptr inbounds %"struct.cv::hal::cpu_baseline::(anonymous namespace)::RGB2YCrCb_i", ptr %22, i32 0, i32 1
  %26 = load i32, ptr %25, align 4
  store i32 %26, ptr %10, align 4
  store i32 0, ptr %11, align 4
  %27 = getelementptr inbounds %"struct.cv::hal::cpu_baseline::(anonymous namespace)::RGB2YCrCb_i", ptr %22, i32 0, i32 3
  %28 = load i8, ptr %27, align 4
  %29 = trunc i8 %28 to i1
  %30 = xor i1 %29, true
  %31 = zext i1 %30 to i32
  store i32 %31, ptr %12, align 4
  %32 = getelementptr inbounds %"struct.cv::hal::cpu_baseline::(anonymous namespace)::RGB2YCrCb_i", ptr %22, i32 0, i32 2
  %33 = getelementptr inbounds [5 x i32], ptr %32, i64 0, i64 0
  %34 = load i32, ptr %33, align 4
  store i32 %34, ptr %13, align 4
  %35 = getelementptr inbounds %"struct.cv::hal::cpu_baseline::(anonymous namespace)::RGB2YCrCb_i", ptr %22, i32 0, i32 2
  %36 = getelementptr inbounds [5 x i32], ptr %35, i64 0, i64 1
  %37 = load i32, ptr %36, align 4
  store i32 %37, ptr %14, align 4
  %38 = getelementptr inbounds %"struct.cv::hal::cpu_baseline::(anonymous namespace)::RGB2YCrCb_i", ptr %22, i32 0, i32 2
  %39 = getelementptr inbounds [5 x i32], ptr %38, i64 0, i64 2
  %40 = load i32, ptr %39, align 4
  store i32 %40, ptr %15, align 4
  %41 = getelementptr inbounds %"struct.cv::hal::cpu_baseline::(anonymous namespace)::RGB2YCrCb_i", ptr %22, i32 0, i32 2
  %42 = getelementptr inbounds [5 x i32], ptr %41, i64 0, i64 3
  %43 = load i32, ptr %42, align 4
  store i32 %43, ptr %16, align 4
  %44 = getelementptr inbounds %"struct.cv::hal::cpu_baseline::(anonymous namespace)::RGB2YCrCb_i", ptr %22, i32 0, i32 2
  %45 = getelementptr inbounds [5 x i32], ptr %44, i64 0, i64 4
  %46 = load i32, ptr %45, align 4
  store i32 %46, ptr %17, align 4
  %47 = call noundef zeroext i8 @_ZN2cv4impl12_GLOBAL__N_112ColorChannelIhE4halfEv()
  %48 = zext i8 %47 to i32
  %49 = mul nsw i32 %48, 16384
  store i32 %49, ptr %18, align 4
  br label %50

50:                                               ; preds = %124, %4
  %51 = load i32, ptr %11, align 4
  %52 = load i32, ptr %8, align 4
  %53 = icmp slt i32 %51, %52
  br i1 %53, label %54, label %133

54:                                               ; preds = %50
  %55 = load ptr, ptr %6, align 8
  %56 = getelementptr inbounds i8, ptr %55, i64 0
  %57 = load i8, ptr %56, align 1
  %58 = zext i8 %57 to i32
  %59 = load i32, ptr %13, align 4
  %60 = mul nsw i32 %58, %59
  %61 = load ptr, ptr %6, align 8
  %62 = getelementptr inbounds i8, ptr %61, i64 1
  %63 = load i8, ptr %62, align 1
  %64 = zext i8 %63 to i32
  %65 = load i32, ptr %14, align 4
  %66 = mul nsw i32 %64, %65
  %67 = add nsw i32 %60, %66
  %68 = load ptr, ptr %6, align 8
  %69 = getelementptr inbounds i8, ptr %68, i64 2
  %70 = load i8, ptr %69, align 1
  %71 = zext i8 %70 to i32
  %72 = load i32, ptr %15, align 4
  %73 = mul nsw i32 %71, %72
  %74 = add nsw i32 %67, %73
  %75 = add nsw i32 %74, 8192
  %76 = ashr i32 %75, 14
  store i32 %76, ptr %19, align 4
  %77 = load ptr, ptr %6, align 8
  %78 = load i32, ptr %10, align 4
  %79 = xor i32 %78, 2
  %80 = sext i32 %79 to i64
  %81 = getelementptr inbounds i8, ptr %77, i64 %80
  %82 = load i8, ptr %81, align 1
  %83 = zext i8 %82 to i32
  %84 = load i32, ptr %19, align 4
  %85 = sub nsw i32 %83, %84
  %86 = load i32, ptr %16, align 4
  %87 = mul nsw i32 %85, %86
  %88 = load i32, ptr %18, align 4
  %89 = add nsw i32 %87, %88
  %90 = add nsw i32 %89, 8192
  %91 = ashr i32 %90, 14
  store i32 %91, ptr %20, align 4
  %92 = load ptr, ptr %6, align 8
  %93 = load i32, ptr %10, align 4
  %94 = sext i32 %93 to i64
  %95 = getelementptr inbounds i8, ptr %92, i64 %94
  %96 = load i8, ptr %95, align 1
  %97 = zext i8 %96 to i32
  %98 = load i32, ptr %19, align 4
  %99 = sub nsw i32 %97, %98
  %100 = load i32, ptr %17, align 4
  %101 = mul nsw i32 %99, %100
  %102 = load i32, ptr %18, align 4
  %103 = add nsw i32 %101, %102
  %104 = add nsw i32 %103, 8192
  %105 = ashr i32 %104, 14
  store i32 %105, ptr %21, align 4
  %106 = load i32, ptr %19, align 4
  %107 = call noundef zeroext i8 @_ZN2cvL13saturate_castIhEET_i(i32 noundef %106)
  %108 = load ptr, ptr %7, align 8
  %109 = getelementptr inbounds i8, ptr %108, i64 0
  store i8 %107, ptr %109, align 1
  %110 = load i32, ptr %20, align 4
  %111 = call noundef zeroext i8 @_ZN2cvL13saturate_castIhEET_i(i32 noundef %110)
  %112 = load ptr, ptr %7, align 8
  %113 = load i32, ptr %12, align 4
  %114 = add nsw i32 1, %113
  %115 = sext i32 %114 to i64
  %116 = getelementptr inbounds i8, ptr %112, i64 %115
  store i8 %111, ptr %116, align 1
  %117 = load i32, ptr %21, align 4
  %118 = call noundef zeroext i8 @_ZN2cvL13saturate_castIhEET_i(i32 noundef %117)
  %119 = load ptr, ptr %7, align 8
  %120 = load i32, ptr %12, align 4
  %121 = sub nsw i32 2, %120
  %122 = sext i32 %121 to i64
  %123 = getelementptr inbounds i8, ptr %119, i64 %122
  store i8 %118, ptr %123, align 1
  br label %124

124:                                              ; preds = %54
  %125 = load i32, ptr %11, align 4
  %126 = add nsw i32 %125, 1
  store i32 %126, ptr %11, align 4
  %127 = load i32, ptr %9, align 4
  %128 = load ptr, ptr %6, align 8
  %129 = sext i32 %127 to i64
  %130 = getelementptr inbounds i8, ptr %128, i64 %129
  store ptr %130, ptr %6, align 8
  %131 = load ptr, ptr %7, align 8
  %132 = getelementptr inbounds i8, ptr %131, i64 3
  store ptr %132, ptr %7, align 8
  br label %50, !llvm.loop !14

133:                                              ; preds = %50
  ret void
}

; Function Attrs: mustprogress uwtable
define internal void @_ZNK2cv4impl12_GLOBAL__N_120CvtColorLoop_InvokerINS_3hal12cpu_baseline12_GLOBAL__N_111RGB2YCrCb_iIhEEEclERKNS_5RangeE(ptr noundef nonnull align 8 dereferenceable(56) %0, ptr noundef nonnull align 4 dereferenceable(8) %1) unnamed_addr #0 align 2 personality ptr @__gxx_personality_v0 {
  %3 = alloca ptr, align 8
  %4 = alloca ptr, align 8
  %5 = alloca %"class.cv::utils::trace::details::Region", align 8
  %6 = alloca ptr, align 8
  %7 = alloca ptr, align 8
  %8 = alloca i32, align 4
  %9 = alloca ptr, align 8
  %10 = alloca i32, align 4
  store ptr %0, ptr %3, align 8
  store ptr %1, ptr %4, align 8
  %11 = load ptr, ptr %3, align 8
  call void @_ZN2cv5utils5trace7details6RegionC1ERKNS3_21LocationStaticStorageE(ptr noundef nonnull align 8 dereferenceable(12) %5, ptr noundef nonnull align 8 dereferenceable(32) @_ZZNK2cv4impl12_GLOBAL__N_120CvtColorLoop_InvokerINS_3hal12cpu_baseline12_GLOBAL__N_111RGB2YCrCb_iIhEEEclERKNS_5RangeEE25__cv_trace_location_fn146)
  %12 = getelementptr inbounds %"class.cv::impl::(anonymous namespace)::CvtColorLoop_Invoker", ptr %11, i32 0, i32 1
  %13 = load ptr, ptr %12, align 8
  %14 = load ptr, ptr %4, align 8
  %15 = getelementptr inbounds %"class.cv::Range", ptr %14, i32 0, i32 0
  %16 = load i32, ptr %15, align 4
  %17 = sext i32 %16 to i64
  %18 = getelementptr inbounds %"class.cv::impl::(anonymous namespace)::CvtColorLoop_Invoker", ptr %11, i32 0, i32 2
  %19 = load i64, ptr %18, align 8
  %20 = mul i64 %17, %19
  %21 = getelementptr inbounds i8, ptr %13, i64 %20
  store ptr %21, ptr %6, align 8
  %22 = getelementptr inbounds %"class.cv::impl::(anonymous namespace)::CvtColorLoop_Invoker", ptr %11, i32 0, i32 3
  %23 = load ptr, ptr %22, align 8
  %24 = load ptr, ptr %4, align 8
  %25 = getelementptr inbounds %"class.cv::Range", ptr %24, i32 0, i32 0
  %26 = load i32, ptr %25, align 4
  %27 = sext i32 %26 to i64
  %28 = getelementptr inbounds %"class.cv::impl::(anonymous namespace)::CvtColorLoop_Invoker", ptr %11, i32 0, i32 4
  %29 = load i64, ptr %28, align 8
  %30 = mul i64 %27, %29
  %31 = getelementptr inbounds i8, ptr %23, i64 %30
  store ptr %31, ptr %7, align 8
  %32 = load ptr, ptr %4, align 8
  %33 = getelementptr inbounds %"class.cv::Range", ptr %32, i32 0, i32 0
  %34 = load i32, ptr %33, align 4
  store i32 %34, ptr %8, align 4
  br label %35

35:                                               ; preds = %49, %2
  %36 = load i32, ptr %8, align 4
  %37 = load ptr, ptr %4, align 8
  %38 = getelementptr inbounds %"class.cv::Range", ptr %37, i32 0, i32 1
  %39 = load i32, ptr %38, align 4
  %40 = icmp slt i32 %36, %39
  br i1 %40, label %41, label %64

41:                                               ; preds = %35
  %42 = getelementptr inbounds %"class.cv::impl::(anonymous namespace)::CvtColorLoop_Invoker", ptr %11, i32 0, i32 6
  %43 = load ptr, ptr %42, align 8
  %44 = load ptr, ptr %6, align 8
  %45 = load ptr, ptr %7, align 8
  %46 = getelementptr inbounds %"class.cv::impl::(anonymous namespace)::CvtColorLoop_Invoker", ptr %11, i32 0, i32 5
  %47 = load i32, ptr %46, align 8
  invoke void @_ZNK2cv3hal12cpu_baseline12_GLOBAL__N_111RGB2YCrCb_iIhEclEPKhPhi(ptr noundef nonnull align 4 dereferenceable(29) %43, ptr noundef %44, ptr noundef %45, i32 noundef %47)
          to label %48 unwind label %60

48:                                               ; preds = %41
  br label %49

49:                                               ; preds = %48
  %50 = load i32, ptr %8, align 4
  %51 = add nsw i32 %50, 1
  store i32 %51, ptr %8, align 4
  %52 = getelementptr inbounds %"class.cv::impl::(anonymous namespace)::CvtColorLoop_Invoker", ptr %11, i32 0, i32 2
  %53 = load i64, ptr %52, align 8
  %54 = load ptr, ptr %6, align 8
  %55 = getelementptr inbounds i8, ptr %54, i64 %53
  store ptr %55, ptr %6, align 8
  %56 = getelementptr inbounds %"class.cv::impl::(anonymous namespace)::CvtColorLoop_Invoker", ptr %11, i32 0, i32 4
  %57 = load i64, ptr %56, align 8
  %58 = load ptr, ptr %7, align 8
  %59 = getelementptr inbounds i8, ptr %58, i64 %57
  store ptr %59, ptr %7, align 8
  br label %35, !llvm.loop !13

60:                                               ; preds = %41
  %61 = landingpad { ptr, i32 }
          cleanup
  %62 = extractvalue { ptr, i32 } %61, 0
  store ptr %62, ptr %9, align 8
  %63 = extractvalue { ptr, i32 } %61, 1
  store i32 %63, ptr %10, align 4
  call void @_ZN2cv5utils5trace7details6RegionD2Ev(ptr noundef nonnull align 8 dereferenceable(12) %5) #10
  br label %65

64:                                               ; preds = %35
  call void @_ZN2cv5utils5trace7details6RegionD2Ev(ptr noundef nonnull align 8 dereferenceable(12) %5) #10
  ret void

65:                                               ; preds = %60
  %66 = load ptr, ptr %9, align 8
  %67 = load i32, ptr %10, align 4
  %68 = insertvalue { ptr, i32 } poison, ptr %66, 0
  %69 = insertvalue { ptr, i32 } %68, i32 %67, 1
  resume { ptr, i32 } %69
}